(dp1
S'screenToShow'
p2
I0
sS'fullScreen'
p3
I01
sS'screenColor'
p4
(I255
I255
I255
tp5
sS'fixCrossSize'
p6
I10
sS'stimDur'
p7
I1
sS'imageSuffix'
p8
S'.jpg'
p9
sS'promptFile'
p10
S'SamplePrompts.txt'
p11
sS'respAdvances'
p12
I00
sS'imageDir'
p13
S'Circles/'
p14
sS'ISI'
p15
I3
sS'fixCrossPos'
p16
(lp17
I0
aI0
asS'skipPrompts'
p18
I00
sS'promptDir'
p19
S'Text/'
p20
sS'tStartup'
p21
I2
sS'nTrials'
p22
I40
sS'nBlocks'
p23
I6
sS'respKeys'
p24
(lp25
S'r'
aS'l'
as.