(dp1
S'paramsFile'
p2
ccopy_reg
_reconstructor
p3
(cfuture.types.newstr
newstr
p4
c__builtin__
unicode
p5
V/Users/jangrawdc/Documents/GitHub/HeatAnticipation/Params/GalbraithHeatParams.psydat
tRp6
sS'session'
p7
I1
sS'skipPrompts'
p8
I00
sS'subject'
p9
S'1'
s.